; Function Attrs: nounwind uwtable
define void @Tim_ManStop(ptr noundef captures(none) %0) local_unnamed_addr #0 {
  %2 = getelementptr inbounds nuw i8, ptr %0, i64 8
  %3 = load ptr, ptr %2, align 8
  %4 = icmp eq ptr %3, null
  br i1 %4, label %Vec_PtrFreeFree.exit, label %5

5:                                                ; preds = %1
  %6 = getelementptr i8, ptr %3, i64 4
  %.val16.i.i = load i32, ptr %6, align 4
  %7 = icmp sgt i32 %.val16.i.i, 0
  br i1 %7, label %.lr.ph.i.i, label %Vec_PtrFreeData.exit.i

.lr.ph.i.i:                                       ; preds = %5
  %8 = getelementptr i8, ptr %3, i64 8
  br label %9

9:                                                ; preds = %13, %.lr.ph.i.i
  %.val19.i.i = phi i32 [ %.val16.i.i, %.lr.ph.i.i ], [ %.val.i.i, %13 ]
  %indvars.iv.i.i = phi i64 [ 0, %.lr.ph.i.i ], [ %indvars.iv.next.i.i, %13 ]
  %.val15.i.i = load ptr, ptr %8, align 8
  %10 = getelementptr inbounds nuw ptr, ptr %.val15.i.i, i64 %indvars.iv.i.i
  %11 = load ptr, ptr %10, align 8
  %switch.i.i = icmp ult ptr %11, inttoptr (i64 3 to ptr)
  br i1 %switch.i.i, label %13, label %12

12:                                               ; preds = %9
  tail call void @free(ptr noundef %11) #18
  %.val.pre.i.i = load i32, ptr %6, align 4
  br label %13

13:                                               ; preds = %12, %9
  %.val.i.i = phi i32 [ %.val19.i.i, %9 ], [ %.val.pre.i.i, %12 ]
  %indvars.iv.next.i.i = add nuw nsw i64 %indvars.iv.i.i, 1
  %14 = sext i32 %.val.i.i to i64
  %15 = icmp slt i64 %indvars.iv.next.i.i, %14
  br i1 %15, label %9, label %Vec_PtrFreeData.exit.i, !llvm.loop !26

Vec_PtrFreeData.exit.i:                           ; preds = %13, %5
  %16 = getelementptr inbounds nuw i8, ptr %3, i64 8
  %17 = load ptr, ptr %16, align 8
  %.not.i.i = icmp eq ptr %17, null
  br i1 %.not.i.i, label %Vec_PtrFree.exit.i, label %18

18:                                               ; preds = %Vec_PtrFreeData.exit.i
  tail call void @free(ptr noundef nonnull %17) #18
  br label %Vec_PtrFree.exit.i

Vec_PtrFree.exit.i:                               ; preds = %18, %Vec_PtrFreeData.exit.i
  tail call void @free(ptr noundef nonnull %3) #18
  br label %Vec_PtrFreeFree.exit

Vec_PtrFreeFree.exit:                             ; preds = %1, %Vec_PtrFree.exit.i
  %19 = load ptr, ptr %0, align 8
  %20 = icmp eq ptr %19, null
  br i1 %20, label %Vec_PtrFreeP.exit, label %21

21:                                               ; preds = %Vec_PtrFreeFree.exit
  %22 = getelementptr inbounds nuw i8, ptr %19, i64 8
  %23 = load ptr, ptr %22, align 8
  %.not.i = icmp eq ptr %23, null
  br i1 %.not.i, label %.thread.i, label %24

24:                                               ; preds = %21
  tail call void @free(ptr noundef nonnull %23) #18
  %25 = load ptr, ptr %0, align 8
  %26 = getelementptr inbounds nuw i8, ptr %25, i64 8
  store ptr null, ptr %26, align 8
  %.pre.i = load ptr, ptr %0, align 8
  %.not9.i = icmp eq ptr %.pre.i, null
  br i1 %.not9.i, label %Vec_PtrFreeP.exit, label %.thread.i

.thread.i:                                        ; preds = %24, %21
  %27 = phi ptr [ %.pre.i, %24 ], [ %19, %21 ]
  tail call void @free(ptr noundef nonnull %27) #18
  store ptr null, ptr %0, align 8
  br label %Vec_PtrFreeP.exit

Vec_PtrFreeP.exit:                                ; preds = %Vec_PtrFreeFree.exit, %24, %.thread.i
  %28 = getelementptr inbounds nuw i8, ptr %0, i64 16
  %29 = load ptr, ptr %28, align 8
  tail call void @Mem_FlexStop(ptr noundef %29, i32 noundef 0) #18
  %30 = getelementptr inbounds nuw i8, ptr %0, i64 40
  %31 = load ptr, ptr %30, align 8
  %.not = icmp eq ptr %31, null
  br i1 %.not, label %33, label %32

32:                                               ; preds = %Vec_PtrFreeP.exit
  tail call void @free(ptr noundef nonnull %31) #18
  store ptr null, ptr %30, align 8
  br label %33

33:                                               ; preds = %Vec_PtrFreeP.exit, %32
  %34 = getelementptr inbounds nuw i8, ptr %0, i64 48
  %35 = load ptr, ptr %34, align 8
  %.not13 = icmp eq ptr %35, null
  br i1 %.not13, label %37, label %36

36:                                               ; preds = %33
  tail call void @free(ptr noundef nonnull %35) #18
  br label %37

37:                                               ; preds = %33, %36
  tail call void @free(ptr noundef nonnull %0) #18
  ret void
}